ccopy_reg
_reconstructor
p0
(cpandas.core.frame
DataFrame
p1
c__builtin__
object
p2
Ntp3
Rp4
(dp5
S'_metadata'
p6
(lp7
sS'_typ'
p8
S'dataframe'
p9
sS'_data'
p10
g0
(cpandas.core.internals
BlockManager
p11
g2
Ntp12
Rp13
((lp14
cpandas.indexes.base
_new_Index
p15
(cpandas.indexes.base
Index
p16
(dp17
S'data'
p18
cnumpy.core.multiarray
_reconstruct
p19
(cnumpy
ndarray
p20
(I0
tp21
S'b'
p22
tp23
Rp24
(I1
(I25
tp25
cnumpy
dtype
p26
(S'O8'
p27
I0
I1
tp28
Rp29
(I3
S'|'
p30
NNNI-1
I-1
I63
tp31
bI00
(lp32
S'GraphType'
p33
aS'LSHType'
p34
aS'avg_derived_final'
p35
aS'avg_derived_netalign'
p36
aS'avg_derived_rank'
p37
aS'bandNumber'
p38
aS'center_dist'
p39
aS'center_id'
p40
aS'correct_score'
p41
aS'correct_score_upper'
p42
aS'cos_num_plane'
p43
aS'edge_label_dir'
p44
aS'euc_width'
p45
aS'filename'
p46
aS'final_score'
p47
aS'found_center'
p48
aS'matching_time'
p49
aS'netalign_score'
p50
aS'nodeAttributeFile'
p51
aS'noise_level'
p52
aS'pairs_computed'
p53
aS'preprocess_time'
p54
aS'rank_score'
p55
aS'rank_score_upper'
p56
aS'threshold'
p57
atp58
bsS'name'
p59
Nstp60
Rp61
ag15
(cpandas.indexes.numeric
Int64Index
p62
(dp63
g18
g19
(g20
(I0
tp64
g22
tp65
Rp66
(I1
(I1
tp67
g26
(S'i8'
p68
I0
I1
tp69
Rp70
(I3
S'<'
p71
NNNI-1
I-1
I0
tp72
bI00
S'\x00\x00\x00\x00\x00\x00\x00\x00'
p73
tp74
bsg59
Nstp75
Rp76
a(lp77
g19
(g20
(I0
tp78
g22
tp79
Rp80
(I1
(I2
I1
tp81
g29
I00
(lp82
S'Undirected'
p83
aS'Cosine'
p84
atp85
bag19
(g20
(I0
tp86
g22
tp87
Rp88
(I1
(I4
I1
tp89
g26
(S'f8'
p90
I0
I1
tp91
Rp92
(I3
S'<'
p93
NNNI-1
I-1
I0
tp94
bI00
S'\x00\x00\x00\x00\x00\x00\x00\x00\x00\x00\x00\x00\x00\x00\x00\x00\x00\x00\x00\x00\x00\x00\x00\x00\x00\x00\x00\x00\x00\x00\x10@'
p95
tp96
bag19
(g20
(I0
tp97
g22
tp98
Rp99
(I1
(I2
I1
tp100
g29
I00
(lp101
S'canberra'
p102
aS'M0'
p103
atp104
bag19
(g20
(I0
tp105
g22
tp106
Rp107
(I1
(I1
I1
tp108
g92
I00
S'I\xc7\x06*\x9e\xd4\xef?'
p109
tp110
bag19
(g20
(I0
tp111
g22
tp112
Rp113
(I1
(I2
I1
tp114
g92
I00
S'\x00\x00\x00\x00\x00\x00\x00\x00\x00\x00\x00\x00\x00\x00I@'
p115
tp116
bag19
(g20
(I0
tp117
g22
tp118
Rp119
(I1
(I1
I1
tp120
g29
I00
(lp121
S'None'
p122
atp123
bag19
(g20
(I0
tp124
g22
tp125
Rp126
(I1
(I1
I1
tp127
g92
I00
S'\x00\x00\x00\x00\x00\x00\x08@'
p128
tp129
bag19
(g20
(I0
tp130
g22
tp131
Rp132
(I1
(I1
I1
tp133
g29
I00
(lp134
S'email'
p135
atp136
bag19
(g20
(I0
tp137
g22
tp138
Rp139
(I1
(I1
I1
tp140
g92
I00
S'\x00\x00\x00\x00\x00\x00\x00\x00'
p141
tp142
bag19
(g20
(I0
tp143
g22
tp144
Rp145
(I1
(I1
I1
tp146
g29
I00
(lp147
S'M0'
p148
atp149
bag19
(g20
(I0
tp150
g22
tp151
Rp152
(I1
(I1
I1
tp153
g92
I00
S'\x00\x00\x00\x184$(@'
p154
tp155
bag19
(g20
(I0
tp156
g22
tp157
Rp158
(I1
(I1
I1
tp159
g92
I00
S'\x00\x00\x00\x00\x00\x00\x00\x00'
p160
tp161
bag19
(g20
(I0
tp162
g22
tp163
Rp164
(I1
(I2
I1
tp165
g29
I00
(lp166
S'Data/email.nodes'
p167
aS'0.02'
p168
atp169
bag19
(g20
(I0
tp170
g22
tp171
Rp172
(I1
(I1
I1
tp173
g92
I00
S'\xa2\xc4\x17\xc9\xa6\xcd\xa3?'
p174
tp175
bag19
(g20
(I0
tp176
g22
tp177
Rp178
(I1
(I1
I1
tp179
g29
I00
(lp180
S'7.04450893402'
p181
atp182
bag19
(g20
(I0
tp183
g22
tp184
Rp185
(I1
(I1
I1
tp186
g92
I00
S'@\xf4\x83\x98\xb1\xe6\xef?'
p187
tp188
bag19
(g20
(I0
tp189
g22
tp190
Rp191
(I1
(I1
I1
tp192
g92
I00
S'\x00\x00\x00\x00\x00\x00\x00\x00'
p193
tp194
bag19
(g20
(I0
tp195
g22
tp196
Rp197
(I1
(I1
I1
tp198
g92
I00
S'\x9a\x99\x99\x99\x99\x99\xc9?'
p199
tp200
ba(lp201
g15
(g16
(dp202
g18
g19
(g20
(I0
tp203
g22
tp204
Rp205
(I1
(I2
tp206
g29
I00
(lp207
g33
ag34
atp208
bsg59
Nstp209
Rp210
ag15
(g16
(dp211
g18
g19
(g20
(I0
tp212
g22
tp213
Rp214
(I1
(I4
tp215
g29
I00
(lp216
g35
ag36
ag37
ag38
atp217
bsg59
Nstp218
Rp219
ag15
(g16
(dp220
g18
g19
(g20
(I0
tp221
g22
tp222
Rp223
(I1
(I2
tp224
g29
I00
(lp225
g39
ag40
atp226
bsg59
Nstp227
Rp228
ag15
(g16
(dp229
g18
g19
(g20
(I0
tp230
g22
tp231
Rp232
(I1
(I1
tp233
g29
I00
(lp234
g41
atp235
bsg59
Nstp236
Rp237
ag15
(g16
(dp238
g18
g19
(g20
(I0
tp239
g22
tp240
Rp241
(I1
(I2
tp242
g29
I00
(lp243
g42
ag43
atp244
bsg59
Nstp245
Rp246
ag15
(g16
(dp247
g18
g19
(g20
(I0
tp248
g22
tp249
Rp250
(I1
(I1
tp251
g29
I00
(lp252
g44
atp253
bsg59
Nstp254
Rp255
ag15
(g16
(dp256
g18
g19
(g20
(I0
tp257
g22
tp258
Rp259
(I1
(I1
tp260
g29
I00
(lp261
g45
atp262
bsg59
Nstp263
Rp264
ag15
(g16
(dp265
g18
g19
(g20
(I0
tp266
g22
tp267
Rp268
(I1
(I1
tp269
g29
I00
(lp270
g46
atp271
bsg59
Nstp272
Rp273
ag15
(g16
(dp274
g18
g19
(g20
(I0
tp275
g22
tp276
Rp277
(I1
(I1
tp278
g29
I00
(lp279
g47
atp280
bsg59
Nstp281
Rp282
ag15
(g16
(dp283
g18
g19
(g20
(I0
tp284
g22
tp285
Rp286
(I1
(I1
tp287
g29
I00
(lp288
g48
atp289
bsg59
Nstp290
Rp291
ag15
(g16
(dp292
g18
g19
(g20
(I0
tp293
g22
tp294
Rp295
(I1
(I1
tp296
g29
I00
(lp297
g49
atp298
bsg59
Nstp299
Rp300
ag15
(g16
(dp301
g18
g19
(g20
(I0
tp302
g22
tp303
Rp304
(I1
(I1
tp305
g29
I00
(lp306
g50
atp307
bsg59
Nstp308
Rp309
ag15
(g16
(dp310
g18
g19
(g20
(I0
tp311
g22
tp312
Rp313
(I1
(I2
tp314
g29
I00
(lp315
g51
ag52
atp316
bsg59
Nstp317
Rp318
ag15
(g16
(dp319
g18
g19
(g20
(I0
tp320
g22
tp321
Rp322
(I1
(I1
tp323
g29
I00
(lp324
g53
atp325
bsg59
Nstp326
Rp327
ag15
(g16
(dp328
g18
g19
(g20
(I0
tp329
g22
tp330
Rp331
(I1
(I1
tp332
g29
I00
(lp333
g54
atp334
bsg59
Nstp335
Rp336
ag15
(g16
(dp337
g18
g19
(g20
(I0
tp338
g22
tp339
Rp340
(I1
(I1
tp341
g29
I00
(lp342
g55
atp343
bsg59
Nstp344
Rp345
ag15
(g16
(dp346
g18
g19
(g20
(I0
tp347
g22
tp348
Rp349
(I1
(I1
tp350
g29
I00
(lp351
g56
atp352
bsg59
Nstp353
Rp354
ag15
(g16
(dp355
g18
g19
(g20
(I0
tp356
g22
tp357
Rp358
(I1
(I1
tp359
g29
I00
(lp360
g57
atp361
bsg59
Nstp362
Rp363
a(dp364
S'0.14.1'
p365
(dp366
S'axes'
p367
g14
sS'blocks'
p368
(lp369
(dp370
S'mgr_locs'
p371
c__builtin__
slice
p372
(I0
I2
I1
tp373
Rp374
sS'values'
p375
g80
sa(dp376
g371
g372
(I2
I6
I1
tp377
Rp378
sg375
g88
sa(dp379
g371
g372
(I6
I8
I1
tp380
Rp381
sg375
g99
sa(dp382
g371
g372
(I8
I9
I1
tp383
Rp384
sg375
g107
sa(dp385
g371
g372
(I9
I11
I1
tp386
Rp387
sg375
g113
sa(dp388
g371
g372
(I11
I12
I1
tp389
Rp390
sg375
g119
sa(dp391
g371
g372
(I12
I13
I1
tp392
Rp393
sg375
g126
sa(dp394
g371
g372
(I13
I14
I1
tp395
Rp396
sg375
g132
sa(dp397
g371
g372
(I14
I15
I1
tp398
Rp399
sg375
g139
sa(dp400
g371
g372
(I15
I16
I1
tp401
Rp402
sg375
g145
sa(dp403
g371
g372
(I16
I17
I1
tp404
Rp405
sg375
g152
sa(dp406
g371
g372
(I17
I18
I1
tp407
Rp408
sg375
g158
sa(dp409
g371
g372
(I18
I20
I1
tp410
Rp411
sg375
g164
sa(dp412
g371
g372
(I20
I21
I1
tp413
Rp414
sg375
g172
sa(dp415
g371
g372
(I21
I22
I1
tp416
Rp417
sg375
g178
sa(dp418
g371
g372
(I22
I23
I1
tp419
Rp420
sg375
g185
sa(dp421
g371
g372
(I23
I24
I1
tp422
Rp423
sg375
g191
sa(dp424
g371
g372
(I24
I25
I1
tp425
Rp426
sg375
g197
sasstp427
bsb.